target datalayout = "e-m:e-p270:32:32-p271:32:32-p272:64:64-i64:64-i128:128-f80:128-n8:16:32:64-S128"
target triple = "x86_64-pc-linux-gnu"

%struct.lxb_html_token_t = type { ptr, ptr, i64, i64, ptr, ptr, ptr, ptr, ptr, i64, i64, i32 }
%struct.lexbor_str_t = type { ptr, i64 }

; Function Attrs: nounwind uwtable
define hidden i32 @lxb_html_token_make_text(ptr noundef %0, ptr noundef %1, ptr noundef %2) #0 {
  %4 = alloca i32, align 4
  %5 = alloca ptr, align 8
  %6 = alloca ptr, align 8
  %7 = alloca ptr, align 8
  %8 = alloca i64, align 8
  store ptr %0, ptr %5, align 8
  store ptr %1, ptr %6, align 8
  store ptr %2, ptr %7, align 8
  %9 = load ptr, ptr %5, align 8
  %10 = getelementptr inbounds %struct.lxb_html_token_t, ptr %9, i32 0, i32 5
  %11 = load ptr, ptr %10, align 8
  %12 = load ptr, ptr %5, align 8
  %13 = getelementptr inbounds %struct.lxb_html_token_t, ptr %12, i32 0, i32 4
  %14 = load ptr, ptr %13, align 8
  %15 = ptrtoint ptr %11 to i64
  %16 = ptrtoint ptr %14 to i64
  %17 = sub i64 %15, %16
  store i64 %17, ptr %8, align 8
  %18 = load ptr, ptr %6, align 8
  %19 = load ptr, ptr %7, align 8
  %20 = load i64, ptr %8, align 8
  %21 = call ptr @lexbor_str_init(ptr noundef %18, ptr noundef %19, i64 noundef %20)
  %22 = load ptr, ptr %6, align 8
  %23 = getelementptr inbounds %struct.lexbor_str_t, ptr %22, i32 0, i32 0
  %24 = load ptr, ptr %23, align 8
  %25 = icmp eq ptr %24, null
  br i1 %25, label %26, label %27

26:                                               ; preds = %3
  store i32 2, ptr %4, align 4
  br label %43

27:                                               ; preds = %3
  %28 = load ptr, ptr %6, align 8
  %29 = getelementptr inbounds %struct.lexbor_str_t, ptr %28, i32 0, i32 0
  %30 = load ptr, ptr %29, align 8
  %31 = load ptr, ptr %5, align 8
  %32 = getelementptr inbounds %struct.lxb_html_token_t, ptr %31, i32 0, i32 4
  %33 = load ptr, ptr %32, align 8
  %34 = load i64, ptr %8, align 8
  call void @llvm.memcpy.p0.p0.i64(ptr align 1 %30, ptr align 1 %33, i64 %34, i1 false)
  %35 = load ptr, ptr %6, align 8
  %36 = getelementptr inbounds %struct.lexbor_str_t, ptr %35, i32 0, i32 0
  %37 = load ptr, ptr %36, align 8
  %38 = load i64, ptr %8, align 8
  %39 = getelementptr inbounds i8, ptr %37, i64 %38
  store i8 0, ptr %39, align 1
  %40 = load i64, ptr %8, align 8
  %41 = load ptr, ptr %6, align 8
  %42 = getelementptr inbounds %struct.lexbor_str_t, ptr %41, i32 0, i32 1
  store i64 %40, ptr %42, align 8
  store i32 0, ptr %4, align 4
  br label %43

43:                                               ; preds = %27, %26
  %44 = load i32, ptr %4, align 4
  ret i32 %44
}