; Function Attrs: nounwind uwtable
define hidden noundef i32 @lxb_html_token_make_text(ptr nocapture noundef readonly %0, ptr noundef %1, ptr noundef %2) local_unnamed_addr #0 {
  %4 = getelementptr inbounds i8, ptr %0, i64 40
  %5 = load ptr, ptr %4, align 8
  %6 = getelementptr inbounds i8, ptr %0, i64 32
  %7 = load ptr, ptr %6, align 8
  %8 = ptrtoint ptr %5 to i64
  %9 = ptrtoint ptr %7 to i64
  %10 = sub i64 %8, %9
  %11 = tail call ptr @lexbor_str_init(ptr noundef %1, ptr noundef %2, i64 noundef %10) #8
  %12 = load ptr, ptr %1, align 8
  %13 = icmp eq ptr %12, null
  br i1 %13, label %19, label %14

14:                                               ; preds = %3
  %15 = load ptr, ptr %6, align 8
  tail call void @llvm.memcpy.p0.p0.i64(ptr nonnull align 1 %12, ptr align 1 %15, i64 %10, i1 false)
  %16 = load ptr, ptr %1, align 8
  %17 = getelementptr inbounds i8, ptr %16, i64 %10
  store i8 0, ptr %17, align 1
  %18 = getelementptr inbounds i8, ptr %1, i64 8
  store i64 %10, ptr %18, align 8
  br label %19

19:                                               ; preds = %3, %14
  %.0 = phi i32 [ 0, %14 ], [ 2, %3 ]
  ret i32 %.0
}